target datalayout = "e-m:e-p270:32:32-p271:32:32-p272:64:64-i64:64-i128:128-f80:128-n8:16:32:64-S128"
target triple = "x86_64-pc-linux-gnu"

%"class.std::__cxx11::basic_string" = type { %"struct.std::__cxx11::basic_string<char>::_Alloc_hider", i64, %union.anon }
%"struct.std::__cxx11::basic_string<char>::_Alloc_hider" = type { ptr }
%union.anon = type { i64, [8 x i8] }
%class.SafeOpFlags = type { i8, i8, i8, i32 }

@_ZN23FunctionInvocationUnaryC1E9eUnaryOpsP11SafeOpFlags = dso_local unnamed_addr alias void (ptr, i32, ptr), ptr @_ZN23FunctionInvocationUnaryC2E9eUnaryOpsP11SafeOpFlags
@_ZN23FunctionInvocationUnaryC1E9eUnaryOpsP11SafeOpFlagsRNSt7__cxx1112basic_stringIcSt11char_traitsIcESaIcEEE = dso_local unnamed_addr alias void (ptr, i32, ptr, ptr), ptr @_ZN23FunctionInvocationUnaryC2E9eUnaryOpsP11SafeOpFlagsRNSt7__cxx1112basic_stringIcSt11char_traitsIcESaIcEEE

; Function Attrs: mustprogress nounwind uwtable
define linkonce_odr dso_local noundef i32 @_ZNK11SafeOpFlags11get_op_sizeEv(ptr noundef nonnull align 4 dereferenceable(8) %0) #5 comdat align 2 {
  %2 = alloca ptr, align 8
  store ptr %0, ptr %2, align 8
  %3 = load ptr, ptr %2, align 8
  %4 = getelementptr inbounds %class.SafeOpFlags, ptr %3, i32 0, i32 3
  %5 = load i32, ptr %4, align 4
  ret i32 %5
}

; Function Attrs: mustprogress nounwind uwtable
define linkonce_odr dso_local noundef zeroext i1 @_ZN11SafeOpFlags12get_op1_signEv(ptr noundef nonnull align 4 dereferenceable(8) %0) #5 comdat align 2 {
  %2 = alloca ptr, align 8
  store ptr %0, ptr %2, align 8
  %3 = load ptr, ptr %2, align 8
  %4 = getelementptr inbounds %class.SafeOpFlags, ptr %3, i32 0, i32 0
  %5 = load i8, ptr %4, align 4
  %6 = trunc i8 %5 to i1
  ret i1 %6
}

; Function Attrs: mustprogress uwtable
define dso_local noundef ptr @_ZN23FunctionInvocationUnary29CreateFunctionInvocationUnaryER9CGContext9eUnaryOpsP11SafeOpFlags(ptr noundef nonnull align 8 dereferenceable(216) %0, i32 noundef %1, ptr noundef %2) #4 align 2 personality ptr @__gxx_personality_v0 {
  %4 = alloca ptr, align 8
  %5 = alloca i32, align 4
  %6 = alloca ptr, align 8
  %7 = alloca ptr, align 8
  %8 = alloca i8, align 1
  %9 = alloca i32, align 4
  %10 = alloca i32, align 4
  %11 = alloca ptr, align 8
  %12 = alloca %"class.std::__cxx11::basic_string", align 8
  %13 = alloca ptr, align 8
  %14 = alloca i32, align 4
  store ptr %0, ptr %4, align 8
  store i32 %1, ptr %5, align 4
  store ptr %2, ptr %6, align 8
  store ptr null, ptr %7, align 8
  %15 = load ptr, ptr %6, align 8
  %16 = icmp ne ptr %15, null
  br i1 %16, label %17, label %45

17:                                               ; preds = %3
  %18 = load ptr, ptr %6, align 8
  %19 = call noundef zeroext i1 @_ZN11SafeOpFlags12get_op1_signEv(ptr noundef nonnull align 4 dereferenceable(8) %18)
  %20 = zext i1 %19 to i8
  store i8 %20, ptr %8, align 1
  %21 = load ptr, ptr %6, align 8
  %22 = call noundef i32 @_ZNK11SafeOpFlags11get_op_sizeEv(ptr noundef nonnull align 4 dereferenceable(8) %21)
  store i32 %22, ptr %9, align 4
  %23 = load i8, ptr %8, align 1
  %24 = trunc i8 %23 to i1
  %25 = load i32, ptr %9, align 4
  %26 = call noundef i32 @_ZN11SafeOpFlags13flags_to_typeEb10SafeOpSize(i1 noundef zeroext %24, i32 noundef %25)
  store i32 %26, ptr %10, align 4
  %27 = load ptr, ptr %4, align 8
  %28 = call noundef ptr @_ZNK9CGContext17get_current_blockEv(ptr noundef nonnull align 8 dereferenceable(216) %27)
  store ptr %28, ptr %11, align 8
  %29 = load ptr, ptr %11, align 8
  %30 = load i32, ptr %10, align 4
  call void @_ZNK5Block18create_new_tmp_varB5cxx11E11eSimpleType(ptr dead_on_unwind writable sret(%"class.std::__cxx11::basic_string") align 8 %12, ptr noundef nonnull align 8 dereferenceable(192) %29, i32 noundef %30)
  %31 = invoke noalias noundef nonnull ptr @_Znwm(i64 noundef 96) #8
          to label %32 unwind label %36

32:                                               ; preds = %17
  %33 = load i32, ptr %5, align 4
  %34 = load ptr, ptr %6, align 8
  invoke void @_ZN23FunctionInvocationUnaryC1E9eUnaryOpsP11SafeOpFlagsRNSt7__cxx1112basic_stringIcSt11char_traitsIcESaIcEEE(ptr noundef nonnull align 8 dereferenceable(96) %31, i32 noundef %33, ptr noundef %34, ptr noundef nonnull align 8 dereferenceable(32) %12)
          to label %35 unwind label %40

35:                                               ; preds = %32
  store ptr %31, ptr %7, align 8
  call void @_ZNSt7__cxx1112basic_stringIcSt11char_traitsIcESaIcEED1Ev(ptr noundef nonnull align 8 dereferenceable(32) %12) #3
  br label %54

36:                                               ; preds = %17
  %37 = landingpad { ptr, i32 }
          cleanup
  %38 = extractvalue { ptr, i32 } %37, 0
  store ptr %38, ptr %13, align 8
  %39 = extractvalue { ptr, i32 } %37, 1
  store i32 %39, ptr %14, align 4
  br label %44

40:                                               ; preds = %32
  %41 = landingpad { ptr, i32 }
          cleanup
  %42 = extractvalue { ptr, i32 } %41, 0
  store ptr %42, ptr %13, align 8
  %43 = extractvalue { ptr, i32 } %41, 1
  store i32 %43, ptr %14, align 4
  call void @_ZdlPv(ptr noundef %31) #9
  br label %44

44:                                               ; preds = %40, %36
  call void @_ZNSt7__cxx1112basic_stringIcSt11char_traitsIcESaIcEED1Ev(ptr noundef nonnull align 8 dereferenceable(32) %12) #3
  br label %56

45:                                               ; preds = %3
  %46 = call noalias noundef nonnull ptr @_Znwm(i64 noundef 96) #8
  %47 = load i32, ptr %5, align 4
  %48 = load ptr, ptr %6, align 8
  invoke void @_ZN23FunctionInvocationUnaryC1E9eUnaryOpsP11SafeOpFlags(ptr noundef nonnull align 8 dereferenceable(96) %46, i32 noundef %47, ptr noundef %48)
          to label %49 unwind label %50

49:                                               ; preds = %45
  store ptr %46, ptr %7, align 8
  br label %54

50:                                               ; preds = %45
  %51 = landingpad { ptr, i32 }
          cleanup
  %52 = extractvalue { ptr, i32 } %51, 0
  store ptr %52, ptr %13, align 8
  %53 = extractvalue { ptr, i32 } %51, 1
  store i32 %53, ptr %14, align 4
  call void @_ZdlPv(ptr noundef %46) #9
  br label %56

54:                                               ; preds = %49, %35
  %55 = load ptr, ptr %7, align 8
  ret ptr %55

56:                                               ; preds = %50, %44
  %57 = load ptr, ptr %13, align 8
  %58 = load i32, ptr %14, align 4
  %59 = insertvalue { ptr, i32 } poison, ptr %57, 0
  %60 = insertvalue { ptr, i32 } %59, i32 %58, 1
  resume { ptr, i32 } %60
}