; Function Attrs: mustprogress uwtable
define dso_local noundef nonnull ptr @_ZN23FunctionInvocationUnary29CreateFunctionInvocationUnaryER9CGContext9eUnaryOpsP11SafeOpFlags(ptr noundef nonnull align 8 dereferenceable(216) %0, i32 noundef %1, ptr noundef %2) local_unnamed_addr #3 align 2 personality ptr @__gxx_personality_v0 {
  %4 = alloca %"class.std::allocator.8", align 1
  %5 = alloca %"class.std::__cxx11::basic_string", align 8
  %.not = icmp eq ptr %2, null
  br i1 %.not, label %25, label %6

6:                                                ; preds = %3
  %7 = load i8, ptr %2, align 4
  %8 = and i8 %7, 1
  %9 = icmp ne i8 %8, 0
  %10 = getelementptr inbounds i8, ptr %2, i64 4
  %11 = load i32, ptr %10, align 4
  %12 = tail call noundef i32 @_ZN11SafeOpFlags13flags_to_typeEb10SafeOpSize(i1 noundef zeroext %9, i32 noundef %11)
  %13 = tail call noundef ptr @_ZNK9CGContext17get_current_blockEv(ptr noundef nonnull align 8 dereferenceable(216) %0)
  call void @_ZNK5Block18create_new_tmp_varB5cxx11E11eSimpleType(ptr dead_on_unwind nonnull writable sret(%"class.std::__cxx11::basic_string") align 8 %5, ptr noundef nonnull align 8 dereferenceable(192) %13, i32 noundef %12)
  %14 = invoke noalias noundef nonnull dereferenceable(96) ptr @_Znwm(i64 noundef 96) #10
          to label %15 unwind label %20

15:                                               ; preds = %6
  invoke void @_ZN18FunctionInvocationC2E15eInvocationTypePK11SafeOpFlags(ptr noundef nonnull align 8 dereferenceable(56) %14, i32 noundef 1, ptr noundef nonnull %2)
          to label %.noexc unwind label %22

.noexc:                                           ; preds = %15
  store ptr getelementptr inbounds ({ [15 x ptr] }, ptr @_ZTV23FunctionInvocationUnary, i64 0, i32 0, i64 2), ptr %14, align 8
  %16 = getelementptr inbounds i8, ptr %14, i64 56
  store i32 %1, ptr %16, align 8
  %17 = getelementptr inbounds i8, ptr %14, i64 64
  invoke void @_ZNSt7__cxx1112basic_stringIcSt11char_traitsIcESaIcEEC1ERKS4_(ptr noundef nonnull align 8 dereferenceable(32) %17, ptr noundef nonnull align 8 dereferenceable(32) %5)
          to label %_ZN23FunctionInvocationUnaryC2E9eUnaryOpsP11SafeOpFlagsRNSt7__cxx1112basic_stringIcSt11char_traitsIcESaIcEEE.exit unwind label %18

18:                                               ; preds = %.noexc
  %19 = landingpad { ptr, i32 }
          cleanup
  call void @_ZN18FunctionInvocationD2Ev(ptr noundef nonnull align 8 dereferenceable(56) %14) #11
  br label %.body

_ZN23FunctionInvocationUnaryC2E9eUnaryOpsP11SafeOpFlagsRNSt7__cxx1112basic_stringIcSt11char_traitsIcESaIcEEE.exit: ; preds = %.noexc
  call void @_ZNSt7__cxx1112basic_stringIcSt11char_traitsIcESaIcEED1Ev(ptr noundef nonnull align 8 dereferenceable(32) %5) #11
  br label %33

20:                                               ; preds = %6
  %21 = landingpad { ptr, i32 }
          cleanup
  br label %24

22:                                               ; preds = %15
  %23 = landingpad { ptr, i32 }
          cleanup
  br label %.body

.body:                                            ; preds = %18, %22
  %eh.lpad-body = phi { ptr, i32 } [ %23, %22 ], [ %19, %18 ]
  call void @_ZdlPv(ptr noundef nonnull %14) #12
  br label %24

24:                                               ; preds = %.body, %20
  %.pn = phi { ptr, i32 } [ %eh.lpad-body, %.body ], [ %21, %20 ]
  call void @_ZNSt7__cxx1112basic_stringIcSt11char_traitsIcESaIcEED1Ev(ptr noundef nonnull align 8 dereferenceable(32) %5) #11
  br label %34

25:                                               ; preds = %3
  %26 = tail call noalias noundef nonnull dereferenceable(96) ptr @_Znwm(i64 noundef 96) #10
  call void @llvm.lifetime.start.p0(i64 1, ptr nonnull %4)
  invoke void @_ZN18FunctionInvocationC2E15eInvocationTypePK11SafeOpFlags(ptr noundef nonnull align 8 dereferenceable(56) %26, i32 noundef 1, ptr noundef null)
          to label %.noexc21 unwind label %31

.noexc21:                                         ; preds = %25
  store ptr getelementptr inbounds ({ [15 x ptr] }, ptr @_ZTV23FunctionInvocationUnary, i64 0, i32 0, i64 2), ptr %26, align 8
  %27 = getelementptr inbounds i8, ptr %26, i64 56
  store i32 %1, ptr %27, align 8
  %28 = getelementptr inbounds i8, ptr %26, i64 64
  call void @_ZNSaIcEC1Ev(ptr noundef nonnull align 1 dereferenceable(1) %4) #11
  invoke void @_ZNSt7__cxx1112basic_stringIcSt11char_traitsIcESaIcEEC1EPKcRKS3_(ptr noundef nonnull align 8 dereferenceable(32) %28, ptr noundef nonnull @.str, ptr noundef nonnull align 1 dereferenceable(1) %4)
          to label %_ZN23FunctionInvocationUnaryC2E9eUnaryOpsP11SafeOpFlags.exit unwind label %29

29:                                               ; preds = %.noexc21
  %30 = landingpad { ptr, i32 }
          cleanup
  call void @_ZNSaIcED1Ev(ptr noundef nonnull align 1 dereferenceable(1) %4) #11
  call void @_ZN18FunctionInvocationD2Ev(ptr noundef nonnull align 8 dereferenceable(56) %26) #11
  br label %.body22

_ZN23FunctionInvocationUnaryC2E9eUnaryOpsP11SafeOpFlags.exit: ; preds = %.noexc21
  call void @_ZNSaIcED1Ev(ptr noundef nonnull align 1 dereferenceable(1) %4) #11
  call void @llvm.lifetime.end.p0(i64 1, ptr nonnull %4)
  br label %33

31:                                               ; preds = %25
  %32 = landingpad { ptr, i32 }
          cleanup
  br label %.body22

.body22:                                          ; preds = %29, %31
  %eh.lpad-body23 = phi { ptr, i32 } [ %32, %31 ], [ %30, %29 ]
  call void @_ZdlPv(ptr noundef nonnull %26) #12
  br label %34

33:                                               ; preds = %_ZN23FunctionInvocationUnaryC2E9eUnaryOpsP11SafeOpFlags.exit, %_ZN23FunctionInvocationUnaryC2E9eUnaryOpsP11SafeOpFlagsRNSt7__cxx1112basic_stringIcSt11char_traitsIcESaIcEEE.exit
  %.016 = phi ptr [ %14, %_ZN23FunctionInvocationUnaryC2E9eUnaryOpsP11SafeOpFlagsRNSt7__cxx1112basic_stringIcSt11char_traitsIcESaIcEEE.exit ], [ %26, %_ZN23FunctionInvocationUnaryC2E9eUnaryOpsP11SafeOpFlags.exit ]
  ret ptr %.016

34:                                               ; preds = %.body22, %24
  %.pn.pn = phi { ptr, i32 } [ %.pn, %24 ], [ %eh.lpad-body23, %.body22 ]
  resume { ptr, i32 } %.pn.pn
}